target datalayout = "e-m:e-p270:32:32-p271:32:32-p272:64:64-i64:64-i128:128-f80:128-n8:16:32:64-S128"
target triple = "x86_64-unknown-linux-gnu"

%struct.PCIDevice = type { %struct.DeviceState, i8, i8, ptr, ptr, ptr, ptr, ptr, i32, %struct.PCIReqIDCache, [64 x i8], [7 x %struct.PCIIORegion], %struct.AddressSpace, %struct.MemoryRegion, %struct.MemoryRegion, ptr, ptr, [3 x ptr], i8, i8, i32, i8, i32, ptr, ptr, ptr, ptr, ptr, ptr, %struct.MemoryRegion, %struct.MemoryRegion, %struct.MemoryRegion, ptr, i8, i32, i8, %struct.PCIExpressDevice, ptr, ptr, i32, i8, %struct.MemoryRegion, i32, ptr, ptr, ptr, ptr, ptr, i32 }
%struct.DeviceState = type { %struct.Object, ptr, ptr, i8, i8, i64, ptr, i32, i8, ptr, %struct.NamedGPIOListHead, %struct.NamedClockListHead, %struct.BusStateHead, i32, i32, i32, %struct.ResettableState, ptr, %struct.MemReentrancyGuard }
%struct.Object = type { ptr, ptr, ptr, i32, ptr }
%struct.NamedGPIOListHead = type { ptr }
%struct.NamedClockListHead = type { ptr }
%struct.BusStateHead = type { ptr }
%struct.ResettableState = type { i32, i8, i8 }
%struct.MemReentrancyGuard = type { i8 }
%struct.PCIReqIDCache = type { ptr, i32 }
%struct.PCIIORegion = type { i64, i64, i8, ptr, ptr }
%struct.AddressSpace = type { %struct.rcu_head, ptr, ptr, ptr, i32, i32, ptr, %union.anon, %union.anon.0 }
%struct.rcu_head = type { ptr, ptr }
%union.anon = type { %struct.QTailQLink }
%struct.QTailQLink = type { ptr, ptr }
%union.anon.0 = type { %struct.QTailQLink }
%struct.PCIExpressDevice = type { i8, i8, i8, i16, %struct.PCIEAERLog, i16, i16, i16, %struct.PCIESriovPF, %struct.PCIESriovVF }
%struct.PCIEAERLog = type { i16, i16, ptr }
%struct.PCIESriovPF = type { i16, [7 x i8], ptr, ptr }
%struct.PCIESriovVF = type { ptr, i16 }
%struct.MemoryRegion = type { %struct.Object, i8, i8, i8, i8, i8, i8, i8, i8, i8, i8, ptr, ptr, ptr, ptr, ptr, ptr, i32, i128, i64, ptr, i64, i8, i8, i8, i8, i8, ptr, i64, i32, %union.anon.1, %union.anon.2, %union.anon.3, ptr, i32, ptr, ptr, i8 }
%union.anon.1 = type { %struct.QTailQLink }
%union.anon.2 = type { %struct.QTailQLink }
%union.anon.3 = type { %struct.QTailQLink }
%struct.IVShmemState = type { %struct.PCIDevice, i32, ptr, %struct.CharBackend, i32, i32, i32, %struct.MemoryRegion, ptr, %struct.MemoryRegion, ptr, i32, i32, ptr, i64, i32, i32, ptr }
%struct.CharBackend = type { ptr, ptr, ptr, ptr, ptr, ptr, i32, i32 }

@.str = private unnamed_addr constant [15 x i8] c"ivshmem-common\00", align 1
@.str.7 = private unnamed_addr constant [26 x i8] c"../qemu/hw/misc/ivshmem.c\00", align 1
@__func__.IVSHMEM_COMMON = private unnamed_addr constant [15 x i8] c"IVSHMEM_COMMON\00", align 1
@__func__.ivshmem_plain_realize = private unnamed_addr constant [22 x i8] c"ivshmem_plain_realize\00", align 1
@.str.39 = private unnamed_addr constant [28 x i8] c"You must specify a 'memdev'\00", align 1
@.str.40 = private unnamed_addr constant [34 x i8] c"can't use already busy memdev: %s\00", align 1

; Function Attrs: nounwind sspstrong uwtable
define internal ptr @IVSHMEM_COMMON(ptr noundef %obj) #0 {
entry:
  %obj.addr = alloca ptr, align 8
  store ptr %obj, ptr %obj.addr, align 8
  %0 = load ptr, ptr %obj.addr, align 8
  %call = call ptr @object_dynamic_cast_assert(ptr noundef %0, ptr noundef @.str, ptr noundef @.str.7, i32 noundef 63, ptr noundef @__func__.IVSHMEM_COMMON)
  ret ptr %call
}

; Function Attrs: nounwind sspstrong uwtable
define internal void @ivshmem_plain_realize(ptr noundef %dev, ptr noundef %errp) #0 {
entry:
  %dev.addr = alloca ptr, align 8
  %errp.addr = alloca ptr, align 8
  %s = alloca ptr, align 8
  store ptr %dev, ptr %dev.addr, align 8
  store ptr %errp, ptr %errp.addr, align 8
  %0 = load ptr, ptr %dev.addr, align 8
  %call = call ptr @IVSHMEM_COMMON(ptr noundef %0)
  store ptr %call, ptr %s, align 8
  %1 = load ptr, ptr %s, align 8
  %hostmem = getelementptr inbounds %struct.IVShmemState, ptr %1, i32 0, i32 2
  %2 = load ptr, ptr %hostmem, align 8
  %tobool = icmp ne ptr %2, null
  br i1 %tobool, label %if.else, label %if.then

if.then:                                          ; preds = %entry
  %3 = load ptr, ptr %errp.addr, align 8
  call void (ptr, ptr, i32, ptr, ptr, ...) @error_setg_internal(ptr noundef %3, ptr noundef @.str.7, i32 noundef 1038, ptr noundef @__func__.ivshmem_plain_realize, ptr noundef @.str.39)
  br label %return

if.else:                                          ; preds = %entry
  %4 = load ptr, ptr %s, align 8
  %hostmem1 = getelementptr inbounds %struct.IVShmemState, ptr %4, i32 0, i32 2
  %5 = load ptr, ptr %hostmem1, align 8
  %call2 = call zeroext i1 @host_memory_backend_is_mapped(ptr noundef %5)
  br i1 %call2, label %if.then3, label %if.end

if.then3:                                         ; preds = %if.else
  %6 = load ptr, ptr %errp.addr, align 8
  %7 = load ptr, ptr %s, align 8
  %hostmem4 = getelementptr inbounds %struct.IVShmemState, ptr %7, i32 0, i32 2
  %8 = load ptr, ptr %hostmem4, align 8
  %call5 = call ptr @object_get_canonical_path_component(ptr noundef %8)
  call void (ptr, ptr, i32, ptr, ptr, ...) @error_setg_internal(ptr noundef %6, ptr noundef @.str.7, i32 noundef 1042, ptr noundef @__func__.ivshmem_plain_realize, ptr noundef @.str.40, ptr noundef %call5)
  br label %return

if.end:                                           ; preds = %if.else
  br label %if.end6

if.end6:                                          ; preds = %if.end
  %9 = load ptr, ptr %dev.addr, align 8
  %10 = load ptr, ptr %errp.addr, align 8
  call void @ivshmem_common_realize(ptr noundef %9, ptr noundef %10)
  br label %return

return:                                           ; preds = %if.end6, %if.then3, %if.then
  ret void
}