; Function Attrs: nounwind sspstrong uwtable
define internal void @ivshmem_plain_realize(ptr noundef %dev, ptr noundef %errp) #0 {
entry:
  %call.i = tail call ptr @object_dynamic_cast_assert(ptr noundef %dev, ptr noundef nonnull @.str, ptr noundef nonnull @.str.7, i32 noundef 63, ptr noundef nonnull @__func__.IVSHMEM_COMMON) #11
  %hostmem = getelementptr inbounds nuw i8, ptr %call.i, i64 2616
  %0 = load ptr, ptr %hostmem, align 8
  %tobool.not = icmp eq ptr %0, null
  br i1 %tobool.not, label %if.then, label %if.else

if.then:                                          ; preds = %entry
  tail call void (ptr, ptr, i32, ptr, ptr, ...) @error_setg_internal(ptr noundef %errp, ptr noundef nonnull @.str.7, i32 noundef 1038, ptr noundef nonnull @__func__.ivshmem_plain_realize, ptr noundef nonnull @.str.39) #11
  br label %return

if.else:                                          ; preds = %entry
  %call2 = tail call zeroext i1 @host_memory_backend_is_mapped(ptr noundef nonnull %0) #11
  br i1 %call2, label %if.then3, label %if.end6

if.then3:                                         ; preds = %if.else
  %1 = load ptr, ptr %hostmem, align 8
  %call5 = tail call ptr @object_get_canonical_path_component(ptr noundef %1) #11
  tail call void (ptr, ptr, i32, ptr, ptr, ...) @error_setg_internal(ptr noundef %errp, ptr noundef nonnull @.str.7, i32 noundef 1042, ptr noundef nonnull @__func__.ivshmem_plain_realize, ptr noundef nonnull @.str.40, ptr noundef %call5) #11
  br label %return

if.end6:                                          ; preds = %if.else
  tail call void @ivshmem_common_realize(ptr noundef %dev, ptr noundef %errp)
  br label %return

return:                                           ; preds = %if.end6, %if.then3, %if.then
  ret void
}